; Function Attrs: mustprogress uwtable
define hidden void @_ZN2cv21getLinearColumnFilterEiiRKNS_11_InputArrayEiidi(ptr dead_on_unwind noalias nocapture writable writeonly sret(%"struct.cv::Ptr.14") align 8 %0, i32 noundef %1, i32 noundef %2, ptr noundef nonnull align 8 dereferenceable(24) %3, i32 noundef %4, i32 noundef %5, double noundef %6, i32 noundef %7) local_unnamed_addr #3 personality ptr @__gxx_personality_v0 {
  %9 = alloca %"class.cv::utils::trace::details::Region", align 8
  %10 = alloca %"class.cv::Mat", align 8
  call void @_ZN2cv5utils5trace7details6RegionC1ERKNS3_21LocationStaticStorageE(ptr noundef nonnull align 8 dereferenceable(12) %9, ptr noundef nonnull align 8 dereferenceable(32) @_ZZN2cv21getLinearColumnFilterEiiRKNS_11_InputArrayEiidiE25__cv_trace_location_fn281)
  %11 = invoke noundef i32 @_ZNK2cv11_InputArray4kindEv(ptr noundef nonnull align 8 dereferenceable(24) %3)
          to label %.noexc unwind label %24

.noexc:                                           ; preds = %8
  %12 = icmp eq i32 %11, 65536
  br i1 %12, label %13, label %16

13:                                               ; preds = %.noexc
  %14 = getelementptr inbounds i8, ptr %3, i64 8
  %15 = load ptr, ptr %14, align 8, !noalias !211
  invoke void @_ZN2cv3MatC1ERKS0_(ptr noundef nonnull align 8 dereferenceable(96) %10, ptr noundef nonnull align 8 dereferenceable(96) %15)
          to label %_ZNK2cv11_InputArray6getMatEi.exit unwind label %24

16:                                               ; preds = %.noexc
  invoke void @_ZNK2cv11_InputArray7getMat_Ei(ptr dead_on_unwind nonnull writable sret(%"class.cv::Mat") align 8 %10, ptr noundef nonnull align 8 dereferenceable(24) %3, i32 noundef -1)
          to label %_ZNK2cv11_InputArray6getMatEi.exit unwind label %24

_ZNK2cv11_InputArray6getMatEi.exit:               ; preds = %13, %16
  invoke void @_ZN2cv12cpu_baseline21getLinearColumnFilterEiiRKNS_3MatEiidi(ptr dead_on_unwind writable sret(%"struct.cv::Ptr.14") align 8 %0, i32 noundef %1, i32 noundef %2, ptr noundef nonnull align 8 dereferenceable(96) %10, i32 noundef %4, i32 noundef %5, double noundef %6, i32 noundef %7)
          to label %17 unwind label %26

17:                                               ; preds = %_ZNK2cv11_InputArray6getMatEi.exit
  call void @_ZN2cv3MatD1Ev(ptr noundef nonnull align 8 dereferenceable(96) %10) #25
  %18 = getelementptr inbounds i8, ptr %9, i64 8
  %19 = load i32, ptr %18, align 8
  %.not.i = icmp eq i32 %19, 0
  br i1 %.not.i, label %_ZN2cv5utils5trace7details6RegionD2Ev.exit, label %20

20:                                               ; preds = %17
  invoke void @_ZN2cv5utils5trace7details6Region7destroyEv(ptr noundef nonnull align 8 dereferenceable(12) %9)
          to label %_ZN2cv5utils5trace7details6RegionD2Ev.exit unwind label %21

21:                                               ; preds = %20
  %22 = landingpad { ptr, i32 }
          catch ptr null
  %23 = extractvalue { ptr, i32 } %22, 0
  call void @__clang_call_terminate(ptr %23) #27
  unreachable

_ZN2cv5utils5trace7details6RegionD2Ev.exit:       ; preds = %17, %20
  ret void

24:                                               ; preds = %16, %13, %8
  %25 = landingpad { ptr, i32 }
          cleanup
  br label %28

26:                                               ; preds = %_ZNK2cv11_InputArray6getMatEi.exit
  %27 = landingpad { ptr, i32 }
          cleanup
  call void @_ZN2cv3MatD1Ev(ptr noundef nonnull align 8 dereferenceable(96) %10) #25
  br label %28

28:                                               ; preds = %26, %24
  %.pn = phi { ptr, i32 } [ %27, %26 ], [ %25, %24 ]
  call void @_ZN2cv5utils5trace7details6RegionD2Ev(ptr noundef nonnull align 8 dereferenceable(12) %9) #25
  resume { ptr, i32 } %.pn
}